target datalayout = "e-m:e-p270:32:32-p271:32:32-p272:64:64-i64:64-i128:128-f80:128-n8:16:32:64-S128"
target triple = "x86_64-pc-linux-gnu"

%struct.asn1_string_st = type { i32, i32, ptr, i64 }

@.str = private unnamed_addr constant [31 x i8] c"../openssl/crypto/asn1/a_int.c\00", align 1
@__func__.bn_to_asn1_string = private unnamed_addr constant [18 x i8] c"bn_to_asn1_string\00", align 1

; Function Attrs: nounwind uwtable
define internal ptr @bn_to_asn1_string(ptr noundef %0, ptr noundef %1, i32 noundef %2) #0 {
  %4 = alloca ptr, align 8
  %5 = alloca ptr, align 8
  %6 = alloca ptr, align 8
  %7 = alloca i32, align 4
  %8 = alloca ptr, align 8
  %9 = alloca i32, align 4
  %10 = alloca i32, align 4
  store ptr %0, ptr %5, align 8, !tbaa !30
  store ptr %1, ptr %6, align 8, !tbaa !3
  store i32 %2, ptr %7, align 4, !tbaa !13
  call void @llvm.lifetime.start.p0(i64 8, ptr %8) #4
  call void @llvm.lifetime.start.p0(i64 4, ptr %9) #4
  %11 = load ptr, ptr %6, align 8, !tbaa !3
  %12 = icmp eq ptr %11, null
  br i1 %12, label %13, label %16

13:                                               ; preds = %3
  %14 = load i32, ptr %7, align 4, !tbaa !13
  %15 = call ptr @ASN1_STRING_type_new(i32 noundef %14)
  store ptr %15, ptr %8, align 8, !tbaa !3
  br label %21

16:                                               ; preds = %3
  %17 = load ptr, ptr %6, align 8, !tbaa !3
  store ptr %17, ptr %8, align 8, !tbaa !3
  %18 = load i32, ptr %7, align 4, !tbaa !13
  %19 = load ptr, ptr %8, align 8, !tbaa !3
  %20 = getelementptr inbounds nuw %struct.asn1_string_st, ptr %19, i32 0, i32 1
  store i32 %18, ptr %20, align 4, !tbaa !8
  br label %21

21:                                               ; preds = %16, %13
  %22 = load ptr, ptr %8, align 8, !tbaa !3
  %23 = icmp eq ptr %22, null
  br i1 %23, label %24, label %25

24:                                               ; preds = %21
  call void @ERR_new()
  call void @ERR_set_debug(ptr noundef @.str, i32 noundef 479, ptr noundef @__func__.bn_to_asn1_string)
  call void (i32, i32, ptr, ...) @ERR_set_error(i32 noundef 13, i32 noundef 524554, ptr noundef null)
  br label %72

25:                                               ; preds = %21
  %26 = load ptr, ptr %5, align 8, !tbaa !30
  %27 = call i32 @BN_is_negative(ptr noundef %26)
  %28 = icmp ne i32 %27, 0
  br i1 %28, label %29, label %38

29:                                               ; preds = %25
  %30 = load ptr, ptr %5, align 8, !tbaa !30
  %31 = call i32 @BN_is_zero(ptr noundef %30)
  %32 = icmp ne i32 %31, 0
  br i1 %32, label %38, label %33

33:                                               ; preds = %29
  %34 = load ptr, ptr %8, align 8, !tbaa !3
  %35 = getelementptr inbounds nuw %struct.asn1_string_st, ptr %34, i32 0, i32 1
  %36 = load i32, ptr %35, align 4, !tbaa !8
  %37 = or i32 %36, 258
  store i32 %37, ptr %35, align 4, !tbaa !8
  br label %38

38:                                               ; preds = %33, %29, %25
  %39 = load ptr, ptr %5, align 8, !tbaa !30
  %40 = call i32 @BN_num_bits(ptr noundef %39)
  %41 = add nsw i32 %40, 7
  %42 = sdiv i32 %41, 8
  store i32 %42, ptr %9, align 4, !tbaa !13
  %43 = load i32, ptr %9, align 4, !tbaa !13
  %44 = icmp eq i32 %43, 0
  br i1 %44, label %45, label %46

45:                                               ; preds = %38
  store i32 1, ptr %9, align 4, !tbaa !13
  br label %46

46:                                               ; preds = %45, %38
  %47 = load ptr, ptr %8, align 8, !tbaa !3
  %48 = load i32, ptr %9, align 4, !tbaa !13
  %49 = call i32 @ASN1_STRING_set(ptr noundef %47, ptr noundef null, i32 noundef %48)
  %50 = icmp eq i32 %49, 0
  br i1 %50, label %51, label %52

51:                                               ; preds = %46
  call void @ERR_new()
  call void @ERR_set_debug(ptr noundef @.str, i32 noundef 492, ptr noundef @__func__.bn_to_asn1_string)
  call void (i32, i32, ptr, ...) @ERR_set_error(i32 noundef 13, i32 noundef 524301, ptr noundef null)
  br label %72

52:                                               ; preds = %46
  %53 = load ptr, ptr %5, align 8, !tbaa !30
  %54 = call i32 @BN_is_zero(ptr noundef %53)
  %55 = icmp ne i32 %54, 0
  br i1 %55, label %56, label %61

56:                                               ; preds = %52
  %57 = load ptr, ptr %8, align 8, !tbaa !3
  %58 = getelementptr inbounds nuw %struct.asn1_string_st, ptr %57, i32 0, i32 2
  %59 = load ptr, ptr %58, align 8, !tbaa !16
  %60 = getelementptr inbounds i8, ptr %59, i64 0
  store i8 0, ptr %60, align 1, !tbaa !20
  br label %67

61:                                               ; preds = %52
  %62 = load ptr, ptr %5, align 8, !tbaa !30
  %63 = load ptr, ptr %8, align 8, !tbaa !3
  %64 = getelementptr inbounds nuw %struct.asn1_string_st, ptr %63, i32 0, i32 2
  %65 = load ptr, ptr %64, align 8, !tbaa !16
  %66 = call i32 @BN_bn2bin(ptr noundef %62, ptr noundef %65)
  store i32 %66, ptr %9, align 4, !tbaa !13
  br label %67

67:                                               ; preds = %61, %56
  %68 = load i32, ptr %9, align 4, !tbaa !13
  %69 = load ptr, ptr %8, align 8, !tbaa !3
  %70 = getelementptr inbounds nuw %struct.asn1_string_st, ptr %69, i32 0, i32 0
  store i32 %68, ptr %70, align 8, !tbaa !17
  %71 = load ptr, ptr %8, align 8, !tbaa !3
  store ptr %71, ptr %4, align 8
  store i32 1, ptr %10, align 4
  br label %79

72:                                               ; preds = %51, %24
  %73 = load ptr, ptr %8, align 8, !tbaa !3
  %74 = load ptr, ptr %6, align 8, !tbaa !3
  %75 = icmp ne ptr %73, %74
  br i1 %75, label %76, label %78

76:                                               ; preds = %72
  %77 = load ptr, ptr %8, align 8, !tbaa !3
  call void @ASN1_INTEGER_free(ptr noundef %77)
  br label %78

78:                                               ; preds = %76, %72
  store ptr null, ptr %4, align 8
  store i32 1, ptr %10, align 4
  br label %79

79:                                               ; preds = %78, %67
  call void @llvm.lifetime.end.p0(i64 4, ptr %9) #4
  call void @llvm.lifetime.end.p0(i64 8, ptr %8) #4
  %80 = load ptr, ptr %4, align 8
  ret ptr %80
}