; Function Attrs: nounwind uwtable
define internal fastcc ptr @bn_to_asn1_string(ptr noundef %0, ptr noundef %1, i32 noundef range(i32 2, 11) %2) unnamed_addr #0 {
  %4 = icmp eq ptr %1, null
  br i1 %4, label %6, label %.thread

.thread:                                          ; preds = %3
  %5 = getelementptr inbounds nuw i8, ptr %1, i64 4
  store i32 %2, ptr %5, align 4, !tbaa !3
  br label %9

6:                                                ; preds = %3
  %7 = tail call ptr @ASN1_STRING_type_new(i32 noundef %2) #6
  %8 = icmp eq ptr %7, null
  br i1 %8, label %32, label %9

9:                                                ; preds = %.thread, %6
  %.02331 = phi ptr [ %1, %.thread ], [ %7, %6 ]
  %10 = tail call i32 @BN_is_negative(ptr noundef %0) #6
  %.not = icmp eq i32 %10, 0
  br i1 %.not, label %17, label %11

11:                                               ; preds = %9
  %12 = tail call i32 @BN_is_zero(ptr noundef %0) #6
  %.not26 = icmp eq i32 %12, 0
  br i1 %.not26, label %13, label %17

13:                                               ; preds = %11
  %14 = getelementptr inbounds nuw i8, ptr %.02331, i64 4
  %15 = load i32, ptr %14, align 4, !tbaa !3
  %16 = or i32 %15, 258
  store i32 %16, ptr %14, align 4, !tbaa !3
  br label %17

17:                                               ; preds = %13, %11, %9
  %18 = tail call i32 @BN_num_bits(ptr noundef %0) #6
  %19 = add nsw i32 %18, 7
  %20 = sdiv i32 %19, 8
  %.off = add i32 %18, 14
  %21 = icmp ult i32 %.off, 15
  %spec.store.select = select i1 %21, i32 1, i32 %20
  %22 = tail call i32 @ASN1_STRING_set(ptr noundef nonnull %.02331, ptr noundef null, i32 noundef %spec.store.select) #6
  %23 = icmp eq i32 %22, 0
  br i1 %23, label %32, label %24

24:                                               ; preds = %17
  %25 = tail call i32 @BN_is_zero(ptr noundef %0) #6
  %.not27 = icmp eq i32 %25, 0
  %26 = getelementptr inbounds nuw i8, ptr %.02331, i64 8
  %27 = load ptr, ptr %26, align 8, !tbaa !11
  br i1 %.not27, label %29, label %28

28:                                               ; preds = %24
  store i8 0, ptr %27, align 1, !tbaa !13
  br label %31

29:                                               ; preds = %24
  %30 = tail call i32 @BN_bn2bin(ptr noundef %0, ptr noundef %27) #6
  br label %31

31:                                               ; preds = %29, %28
  %.0 = phi i32 [ %spec.store.select, %28 ], [ %30, %29 ]
  store i32 %.0, ptr %.02331, align 8, !tbaa !12
  br label %34

32:                                               ; preds = %17, %6
  %.sink32 = phi i32 [ 479, %6 ], [ 492, %17 ]
  %.sink = phi i32 [ 524554, %6 ], [ 524301, %17 ]
  %.02330 = phi ptr [ null, %6 ], [ %.02331, %17 ]
  tail call void @ERR_new() #6
  tail call void @ERR_set_debug(ptr noundef nonnull @.str, i32 noundef %.sink32, ptr noundef nonnull @__func__.bn_to_asn1_string) #6
  tail call void (i32, i32, ptr, ...) @ERR_set_error(i32 noundef 13, i32 noundef %.sink, ptr noundef null) #6
  %.not28 = icmp eq ptr %.02330, %1
  br i1 %.not28, label %34, label %33

33:                                               ; preds = %32
  tail call void @ASN1_INTEGER_free(ptr noundef %.02330) #6
  br label %34

34:                                               ; preds = %32, %33, %31
  %.024 = phi ptr [ %.02331, %31 ], [ null, %33 ], [ null, %32 ]
  ret ptr %.024
}